target datalayout = "e-m:e-p270:32:32-p271:32:32-p272:64:64-i64:64-i128:128-f80:128-n8:16:32:64-S128"
target triple = "x86_64-pc-linux-gnu"

%struct.ec_group_st = type { ptr, ptr, ptr, ptr, i32, i32, i32, i32, ptr, i64, ptr, [6 x i32], ptr, ptr, i32, ptr, ptr, ptr, ptr, i32, %union.anon, ptr, ptr }
%union.anon = type { ptr }

@.str = private unnamed_addr constant [32 x i8] c"../openssl/crypto/ec/ecp_mont.c\00", align 1
@__func__.ossl_ec_GFp_mont_group_set_curve = private unnamed_addr constant [33 x i8] c"ossl_ec_GFp_mont_group_set_curve\00", align 1

; Function Attrs: nounwind uwtable
define i32 @ossl_ec_GFp_mont_group_set_curve(ptr noundef %0, ptr noundef %1, ptr noundef %2, ptr noundef %3, ptr noundef %4) #0 {
  %6 = alloca i32, align 4
  %7 = alloca ptr, align 8
  %8 = alloca ptr, align 8
  %9 = alloca ptr, align 8
  %10 = alloca ptr, align 8
  %11 = alloca ptr, align 8
  %12 = alloca ptr, align 8
  %13 = alloca ptr, align 8
  %14 = alloca ptr, align 8
  %15 = alloca i32, align 4
  %16 = alloca i32, align 4
  store ptr %0, ptr %7, align 8, !tbaa !3
  store ptr %1, ptr %8, align 8, !tbaa !20
  store ptr %2, ptr %9, align 8, !tbaa !20
  store ptr %3, ptr %10, align 8, !tbaa !20
  store ptr %4, ptr %11, align 8, !tbaa !21
  call void @llvm.lifetime.start.p0(i64 8, ptr %12) #3
  store ptr null, ptr %12, align 8, !tbaa !21
  call void @llvm.lifetime.start.p0(i64 8, ptr %13) #3
  store ptr null, ptr %13, align 8, !tbaa !23
  call void @llvm.lifetime.start.p0(i64 8, ptr %14) #3
  store ptr null, ptr %14, align 8, !tbaa !20
  call void @llvm.lifetime.start.p0(i64 4, ptr %15) #3
  store i32 0, ptr %15, align 4, !tbaa !8
  %17 = load ptr, ptr %7, align 8, !tbaa !3
  %18 = getelementptr inbounds nuw %struct.ec_group_st, ptr %17, i32 0, i32 15
  %19 = load ptr, ptr %18, align 8, !tbaa !10
  call void @BN_MONT_CTX_free(ptr noundef %19)
  %20 = load ptr, ptr %7, align 8, !tbaa !3
  %21 = getelementptr inbounds nuw %struct.ec_group_st, ptr %20, i32 0, i32 15
  store ptr null, ptr %21, align 8, !tbaa !10
  %22 = load ptr, ptr %7, align 8, !tbaa !3
  %23 = getelementptr inbounds nuw %struct.ec_group_st, ptr %22, i32 0, i32 16
  %24 = load ptr, ptr %23, align 8, !tbaa !19
  call void @BN_free(ptr noundef %24)
  %25 = load ptr, ptr %7, align 8, !tbaa !3
  %26 = getelementptr inbounds nuw %struct.ec_group_st, ptr %25, i32 0, i32 16
  store ptr null, ptr %26, align 8, !tbaa !19
  %27 = load ptr, ptr %11, align 8, !tbaa !21
  %28 = icmp eq ptr %27, null
  br i1 %28, label %29, label %38

29:                                               ; preds = %5
  %30 = load ptr, ptr %7, align 8, !tbaa !3
  %31 = getelementptr inbounds nuw %struct.ec_group_st, ptr %30, i32 0, i32 21
  %32 = load ptr, ptr %31, align 8, !tbaa !24
  %33 = call ptr @BN_CTX_new_ex(ptr noundef %32)
  store ptr %33, ptr %12, align 8, !tbaa !21
  store ptr %33, ptr %11, align 8, !tbaa !21
  %34 = load ptr, ptr %11, align 8, !tbaa !21
  %35 = icmp eq ptr %34, null
  br i1 %35, label %36, label %37

36:                                               ; preds = %29
  store i32 0, ptr %6, align 4
  store i32 1, ptr %16, align 4
  br label %95

37:                                               ; preds = %29
  br label %38

38:                                               ; preds = %37, %5
  %39 = call ptr @BN_MONT_CTX_new()
  store ptr %39, ptr %13, align 8, !tbaa !23
  %40 = load ptr, ptr %13, align 8, !tbaa !23
  %41 = icmp eq ptr %40, null
  br i1 %41, label %42, label %43

42:                                               ; preds = %38
  br label %90

43:                                               ; preds = %38
  %44 = load ptr, ptr %13, align 8, !tbaa !23
  %45 = load ptr, ptr %8, align 8, !tbaa !20
  %46 = load ptr, ptr %11, align 8, !tbaa !21
  %47 = call i32 @BN_MONT_CTX_set(ptr noundef %44, ptr noundef %45, ptr noundef %46)
  %48 = icmp ne i32 %47, 0
  br i1 %48, label %50, label %49

49:                                               ; preds = %43
  call void @ERR_new()
  call void @ERR_set_debug(ptr noundef @.str, i32 noundef 166, ptr noundef @__func__.ossl_ec_GFp_mont_group_set_curve)
  call void (i32, i32, ptr, ...) @ERR_set_error(i32 noundef 16, i32 noundef 524291, ptr noundef null)
  br label %90

50:                                               ; preds = %43
  %51 = call ptr @BN_new()
  store ptr %51, ptr %14, align 8, !tbaa !20
  %52 = load ptr, ptr %14, align 8, !tbaa !20
  %53 = icmp eq ptr %52, null
  br i1 %53, label %54, label %55

54:                                               ; preds = %50
  br label %90

55:                                               ; preds = %50
  %56 = load ptr, ptr %14, align 8, !tbaa !20
  %57 = call ptr @BN_value_one()
  %58 = load ptr, ptr %13, align 8, !tbaa !23
  %59 = load ptr, ptr %11, align 8, !tbaa !21
  %60 = call i32 @BN_to_montgomery(ptr noundef %56, ptr noundef %57, ptr noundef %58, ptr noundef %59)
  %61 = icmp ne i32 %60, 0
  br i1 %61, label %63, label %62

62:                                               ; preds = %55
  br label %90

63:                                               ; preds = %55
  %64 = load ptr, ptr %13, align 8, !tbaa !23
  %65 = load ptr, ptr %7, align 8, !tbaa !3
  %66 = getelementptr inbounds nuw %struct.ec_group_st, ptr %65, i32 0, i32 15
  store ptr %64, ptr %66, align 8, !tbaa !10
  store ptr null, ptr %13, align 8, !tbaa !23
  %67 = load ptr, ptr %14, align 8, !tbaa !20
  %68 = load ptr, ptr %7, align 8, !tbaa !3
  %69 = getelementptr inbounds nuw %struct.ec_group_st, ptr %68, i32 0, i32 16
  store ptr %67, ptr %69, align 8, !tbaa !19
  store ptr null, ptr %14, align 8, !tbaa !20
  %70 = load ptr, ptr %7, align 8, !tbaa !3
  %71 = load ptr, ptr %8, align 8, !tbaa !20
  %72 = load ptr, ptr %9, align 8, !tbaa !20
  %73 = load ptr, ptr %10, align 8, !tbaa !20
  %74 = load ptr, ptr %11, align 8, !tbaa !21
  %75 = call i32 @ossl_ec_GFp_simple_group_set_curve(ptr noundef %70, ptr noundef %71, ptr noundef %72, ptr noundef %73, ptr noundef %74)
  store i32 %75, ptr %15, align 4, !tbaa !8
  %76 = load i32, ptr %15, align 4, !tbaa !8
  %77 = icmp ne i32 %76, 0
  br i1 %77, label %89, label %78

78:                                               ; preds = %63
  %79 = load ptr, ptr %7, align 8, !tbaa !3
  %80 = getelementptr inbounds nuw %struct.ec_group_st, ptr %79, i32 0, i32 15
  %81 = load ptr, ptr %80, align 8, !tbaa !10
  call void @BN_MONT_CTX_free(ptr noundef %81)
  %82 = load ptr, ptr %7, align 8, !tbaa !3
  %83 = getelementptr inbounds nuw %struct.ec_group_st, ptr %82, i32 0, i32 15
  store ptr null, ptr %83, align 8, !tbaa !10
  %84 = load ptr, ptr %7, align 8, !tbaa !3
  %85 = getelementptr inbounds nuw %struct.ec_group_st, ptr %84, i32 0, i32 16
  %86 = load ptr, ptr %85, align 8, !tbaa !19
  call void @BN_free(ptr noundef %86)
  %87 = load ptr, ptr %7, align 8, !tbaa !3
  %88 = getelementptr inbounds nuw %struct.ec_group_st, ptr %87, i32 0, i32 16
  store ptr null, ptr %88, align 8, !tbaa !19
  br label %89

89:                                               ; preds = %78, %63
  br label %90

90:                                               ; preds = %89, %62, %54, %49, %42
  %91 = load ptr, ptr %14, align 8, !tbaa !20
  call void @BN_free(ptr noundef %91)
  %92 = load ptr, ptr %12, align 8, !tbaa !21
  call void @BN_CTX_free(ptr noundef %92)
  %93 = load ptr, ptr %13, align 8, !tbaa !23
  call void @BN_MONT_CTX_free(ptr noundef %93)
  %94 = load i32, ptr %15, align 4, !tbaa !8
  store i32 %94, ptr %6, align 4
  store i32 1, ptr %16, align 4
  br label %95

95:                                               ; preds = %90, %36
  call void @llvm.lifetime.end.p0(i64 4, ptr %15) #3
  call void @llvm.lifetime.end.p0(i64 8, ptr %14) #3
  call void @llvm.lifetime.end.p0(i64 8, ptr %13) #3
  call void @llvm.lifetime.end.p0(i64 8, ptr %12) #3
  %96 = load i32, ptr %6, align 4
  ret i32 %96
}