; Function Attrs: nounwind uwtable
define i32 @ossl_ec_GFp_mont_group_set_curve(ptr noundef %0, ptr noundef %1, ptr noundef %2, ptr noundef %3, ptr noundef %4) #1 {
  %6 = getelementptr inbounds nuw i8, ptr %0, i64 120
  %7 = load ptr, ptr %6, align 8, !tbaa !3
  tail call void @BN_MONT_CTX_free(ptr noundef %7) #4
  store ptr null, ptr %6, align 8, !tbaa !3
  %8 = getelementptr inbounds nuw i8, ptr %0, i64 128
  %9 = load ptr, ptr %8, align 8, !tbaa !16
  tail call void @BN_free(ptr noundef %9) #4
  store ptr null, ptr %8, align 8, !tbaa !16
  %10 = icmp eq ptr %4, null
  br i1 %10, label %11, label %16

11:                                               ; preds = %5
  %12 = getelementptr inbounds nuw i8, ptr %0, i64 168
  %13 = load ptr, ptr %12, align 8, !tbaa !17
  %14 = tail call ptr @BN_CTX_new_ex(ptr noundef %13) #4
  %15 = icmp eq ptr %14, null
  br i1 %15, label %34, label %16

16:                                               ; preds = %11, %5
  %.036 = phi ptr [ %14, %11 ], [ %4, %5 ]
  %.035 = phi ptr [ %14, %11 ], [ null, %5 ]
  %17 = tail call ptr @BN_MONT_CTX_new() #4
  %18 = icmp eq ptr %17, null
  br i1 %18, label %33, label %19

19:                                               ; preds = %16
  %20 = tail call i32 @BN_MONT_CTX_set(ptr noundef nonnull %17, ptr noundef %1, ptr noundef nonnull %.036) #4
  %.not = icmp eq i32 %20, 0
  br i1 %.not, label %21, label %22

21:                                               ; preds = %19
  tail call void @ERR_new() #4
  tail call void @ERR_set_debug(ptr noundef nonnull @.str, i32 noundef 166, ptr noundef nonnull @__func__.ossl_ec_GFp_mont_group_set_curve) #4
  tail call void (i32, i32, ptr, ...) @ERR_set_error(i32 noundef 16, i32 noundef 524291, ptr noundef null) #4
  br label %33

22:                                               ; preds = %19
  %23 = tail call ptr @BN_new() #4
  %24 = icmp eq ptr %23, null
  br i1 %24, label %33, label %25

25:                                               ; preds = %22
  %26 = tail call ptr @BN_value_one() #4
  %27 = tail call i32 @BN_to_montgomery(ptr noundef nonnull %23, ptr noundef %26, ptr noundef nonnull %17, ptr noundef nonnull %.036) #4
  %.not45 = icmp eq i32 %27, 0
  br i1 %.not45, label %33, label %28

28:                                               ; preds = %25
  store ptr %17, ptr %6, align 8, !tbaa !3
  store ptr %23, ptr %8, align 8, !tbaa !16
  %29 = tail call i32 @ossl_ec_GFp_simple_group_set_curve(ptr noundef nonnull %0, ptr noundef %1, ptr noundef %2, ptr noundef %3, ptr noundef nonnull %.036) #4
  %.not46 = icmp eq i32 %29, 0
  br i1 %.not46, label %30, label %33

30:                                               ; preds = %28
  %31 = load ptr, ptr %6, align 8, !tbaa !3
  tail call void @BN_MONT_CTX_free(ptr noundef %31) #4
  store ptr null, ptr %6, align 8, !tbaa !3
  %32 = load ptr, ptr %8, align 8, !tbaa !16
  tail call void @BN_free(ptr noundef %32) #4
  store ptr null, ptr %8, align 8, !tbaa !16
  br label %33

33:                                               ; preds = %28, %30, %25, %22, %16, %21
  %.034 = phi ptr [ null, %16 ], [ %17, %22 ], [ null, %28 ], [ null, %30 ], [ %17, %25 ], [ %17, %21 ]
  %.033 = phi ptr [ null, %16 ], [ null, %22 ], [ null, %28 ], [ null, %30 ], [ %23, %25 ], [ null, %21 ]
  %.0 = phi i32 [ 0, %16 ], [ 0, %22 ], [ %29, %28 ], [ 0, %30 ], [ 0, %25 ], [ 0, %21 ]
  tail call void @BN_free(ptr noundef %.033) #4
  tail call void @BN_CTX_free(ptr noundef %.035) #4
  tail call void @BN_MONT_CTX_free(ptr noundef %.034) #4
  br label %34

34:                                               ; preds = %11, %33
  %.037 = phi i32 [ %.0, %33 ], [ 0, %11 ]
  ret i32 %.037
}